target datalayout = "e-m:e-p270:32:32-p271:32:32-p272:64:64-i64:64-i128:128-f80:128-n8:16:32:64-S128"
target triple = "x86_64-pc-linux-gnu"

%struct.Cnf_Dat_t_ = type { ptr, i32, i32, i32, ptr, ptr, ptr, ptr, ptr, ptr }

@.str.1 = private unnamed_addr constant [50 x i8] c"Error: SAT solver became UNSAT at a wrong place.\0A\00", align 1

; Function Attrs: inlinehint nounwind uwtable
define internal i32 @toLitCond(i32 noundef %0, i32 noundef %1) #1 {
  %3 = alloca i32, align 4
  %4 = alloca i32, align 4
  store i32 %0, ptr %3, align 4, !tbaa !7
  store i32 %1, ptr %4, align 4, !tbaa !7
  %5 = load i32, ptr %3, align 4, !tbaa !7
  %6 = load i32, ptr %3, align 4, !tbaa !7
  %7 = add nsw i32 %5, %6
  %8 = load i32, ptr %4, align 4, !tbaa !7
  %9 = icmp ne i32 %8, 0
  %10 = zext i1 %9 to i32
  %11 = add nsw i32 %7, %10
  ret i32 %11
}

; Function Attrs: inlinehint nounwind uwtable
define internal i32 @sat_solver_add_buffer_enable(ptr noundef %0, i32 noundef %1, i32 noundef %2, i32 noundef %3, i32 noundef %4) #1 {
  %6 = alloca ptr, align 8
  %7 = alloca i32, align 4
  %8 = alloca i32, align 4
  %9 = alloca i32, align 4
  %10 = alloca i32, align 4
  %11 = alloca [3 x i32], align 4
  %12 = alloca i32, align 4
  store ptr %0, ptr %6, align 8, !tbaa !37
  store i32 %1, ptr %7, align 4, !tbaa !7
  store i32 %2, ptr %8, align 4, !tbaa !7
  store i32 %3, ptr %9, align 4, !tbaa !7
  store i32 %4, ptr %10, align 4, !tbaa !7
  call void @llvm.lifetime.start.p0(i64 12, ptr %11) #12
  call void @llvm.lifetime.start.p0(i64 4, ptr %12) #12
  %13 = load i32, ptr %7, align 4, !tbaa !7
  %14 = call i32 @toLitCond(i32 noundef %13, i32 noundef 0)
  %15 = getelementptr inbounds [3 x i32], ptr %11, i64 0, i64 0
  store i32 %14, ptr %15, align 4, !tbaa !7
  %16 = load i32, ptr %8, align 4, !tbaa !7
  %17 = load i32, ptr %10, align 4, !tbaa !7
  %18 = icmp ne i32 %17, 0
  %19 = xor i1 %18, true
  %20 = zext i1 %19 to i32
  %21 = call i32 @toLitCond(i32 noundef %16, i32 noundef %20)
  %22 = getelementptr inbounds [3 x i32], ptr %11, i64 0, i64 1
  store i32 %21, ptr %22, align 4, !tbaa !7
  %23 = load i32, ptr %9, align 4, !tbaa !7
  %24 = call i32 @toLitCond(i32 noundef %23, i32 noundef 1)
  %25 = getelementptr inbounds [3 x i32], ptr %11, i64 0, i64 2
  store i32 %24, ptr %25, align 4, !tbaa !7
  %26 = load ptr, ptr %6, align 8, !tbaa !37
  %27 = getelementptr inbounds [3 x i32], ptr %11, i64 0, i64 0
  %28 = getelementptr inbounds [3 x i32], ptr %11, i64 0, i64 0
  %29 = getelementptr inbounds i32, ptr %28, i64 3
  %30 = call i32 @sat_solver_addclause(ptr noundef %26, ptr noundef %27, ptr noundef %29)
  store i32 %30, ptr %12, align 4, !tbaa !7
  %31 = load i32, ptr %7, align 4, !tbaa !7
  %32 = call i32 @toLitCond(i32 noundef %31, i32 noundef 1)
  %33 = getelementptr inbounds [3 x i32], ptr %11, i64 0, i64 0
  store i32 %32, ptr %33, align 4, !tbaa !7
  %34 = load i32, ptr %8, align 4, !tbaa !7
  %35 = load i32, ptr %10, align 4, !tbaa !7
  %36 = call i32 @toLitCond(i32 noundef %34, i32 noundef %35)
  %37 = getelementptr inbounds [3 x i32], ptr %11, i64 0, i64 1
  store i32 %36, ptr %37, align 4, !tbaa !7
  %38 = load i32, ptr %9, align 4, !tbaa !7
  %39 = call i32 @toLitCond(i32 noundef %38, i32 noundef 1)
  %40 = getelementptr inbounds [3 x i32], ptr %11, i64 0, i64 2
  store i32 %39, ptr %40, align 4, !tbaa !7
  %41 = load ptr, ptr %6, align 8, !tbaa !37
  %42 = getelementptr inbounds [3 x i32], ptr %11, i64 0, i64 0
  %43 = getelementptr inbounds [3 x i32], ptr %11, i64 0, i64 0
  %44 = getelementptr inbounds i32, ptr %43, i64 3
  %45 = call i32 @sat_solver_addclause(ptr noundef %41, ptr noundef %42, ptr noundef %44)
  store i32 %45, ptr %12, align 4, !tbaa !7
  call void @llvm.lifetime.end.p0(i64 4, ptr %12) #12
  call void @llvm.lifetime.end.p0(i64 12, ptr %11) #12
  ret i32 2
}

; Function Attrs: nounwind uwtable
define i32 @Acb_NtkWindow2Solver(ptr noundef %0, ptr noundef %1, ptr noundef %2, i32 noundef %3, i32 noundef %4, i32 noundef %5) #0 {
  %7 = alloca ptr, align 8
  %8 = alloca ptr, align 8
  %9 = alloca ptr, align 8
  %10 = alloca i32, align 4
  %11 = alloca i32, align 4
  %12 = alloca i32, align 4
  %13 = alloca i32, align 4
  %14 = alloca i32, align 4
  %15 = alloca i32, align 4
  %16 = alloca i32, align 4
  %17 = alloca i32, align 4
  %18 = alloca i32, align 4
  %19 = alloca i32, align 4
  %20 = alloca i32, align 4
  %21 = alloca i32, align 4
  store ptr %0, ptr %7, align 8, !tbaa !37
  store ptr %1, ptr %8, align 8, !tbaa !49
  store ptr %2, ptr %9, align 8, !tbaa !9
  store i32 %3, ptr %10, align 4, !tbaa !7
  store i32 %4, ptr %11, align 4, !tbaa !7
  store i32 %5, ptr %12, align 4, !tbaa !7
  call void @llvm.lifetime.start.p0(i64 4, ptr %13) #12
  call void @llvm.lifetime.start.p0(i64 4, ptr %14) #12
  call void @llvm.lifetime.start.p0(i64 4, ptr %15) #12
  call void @llvm.lifetime.start.p0(i64 4, ptr %16) #12
  %22 = load ptr, ptr %8, align 8, !tbaa !49
  %23 = getelementptr inbounds nuw %struct.Cnf_Dat_t_, ptr %22, i32 0, i32 4
  %24 = load ptr, ptr %23, align 8, !tbaa !57
  %25 = getelementptr inbounds ptr, ptr %24, i64 0
  %26 = load ptr, ptr %25, align 8, !tbaa !35
  %27 = getelementptr inbounds i32, ptr %26, i64 0
  %28 = load i32, ptr %27, align 4, !tbaa !7
  store i32 %28, ptr %16, align 4, !tbaa !7
  call void @llvm.lifetime.start.p0(i64 4, ptr %17) #12
  %29 = load i32, ptr %12, align 4, !tbaa !7
  %30 = icmp sle i32 %29, 2
  br i1 %30, label %31, label %34

31:                                               ; preds = %6
  %32 = load i32, ptr %12, align 4, !tbaa !7
  %33 = sub nsw i32 %32, 1
  br label %35

34:                                               ; preds = %6
  br label %35

35:                                               ; preds = %34, %31
  %36 = phi i32 [ %33, %31 ], [ 2, %34 ]
  store i32 %36, ptr %17, align 4, !tbaa !7
  call void @llvm.lifetime.start.p0(i64 4, ptr %18) #12
  %37 = load i32, ptr %12, align 4, !tbaa !7
  %38 = icmp sle i32 %37, 2
  br i1 %38, label %39, label %42

39:                                               ; preds = %35
  %40 = load i32, ptr %12, align 4, !tbaa !7
  %41 = sub nsw i32 %40, 1
  br label %44

42:                                               ; preds = %35
  %43 = load i32, ptr %12, align 4, !tbaa !7
  br label %44

44:                                               ; preds = %42, %39
  %45 = phi i32 [ %41, %39 ], [ %43, %42 ]
  store i32 %45, ptr %18, align 4, !tbaa !7
  %46 = load ptr, ptr %7, align 8, !tbaa !37
  %47 = load i32, ptr %12, align 4, !tbaa !7
  %48 = load ptr, ptr %8, align 8, !tbaa !49
  %49 = getelementptr inbounds nuw %struct.Cnf_Dat_t_, ptr %48, i32 0, i32 1
  %50 = load i32, ptr %49, align 8, !tbaa !51
  %51 = mul nsw i32 %47, %50
  %52 = load i32, ptr %17, align 4, !tbaa !7
  %53 = load i32, ptr %11, align 4, !tbaa !7
  %54 = mul nsw i32 %52, %53
  %55 = add nsw i32 %51, %54
  %56 = add nsw i32 %55, 2
  call void @sat_solver_setnvars(ptr noundef %46, i32 noundef %56)
  store i32 0, ptr %13, align 4, !tbaa !7
  br label %57

57:                                               ; preds = %138, %44
  %58 = load i32, ptr %13, align 4, !tbaa !7
  %59 = load i32, ptr %12, align 4, !tbaa !7
  %60 = icmp slt i32 %58, %59
  br i1 %60, label %61, label %141

61:                                               ; preds = %57
  %62 = load i32, ptr %13, align 4, !tbaa !7
  %63 = and i32 %62, 1
  %64 = icmp ne i32 %63, 0
  br i1 %64, label %65, label %72

65:                                               ; preds = %61
  %66 = load ptr, ptr %8, align 8, !tbaa !49
  %67 = load ptr, ptr %8, align 8, !tbaa !49
  %68 = getelementptr inbounds nuw %struct.Cnf_Dat_t_, ptr %67, i32 0, i32 1
  %69 = load i32, ptr %68, align 8, !tbaa !51
  %70 = sub nsw i32 0, %69
  %71 = load ptr, ptr %9, align 8, !tbaa !9
  call void @Cnf_DataLiftAndFlipLits(ptr noundef %66, i32 noundef %70, ptr noundef %71)
  br label %72

72:                                               ; preds = %65, %61
  store i32 0, ptr %14, align 4, !tbaa !7
  br label %73

73:                                               ; preds = %101, %72
  %74 = load i32, ptr %14, align 4, !tbaa !7
  %75 = load ptr, ptr %8, align 8, !tbaa !49
  %76 = getelementptr inbounds nuw %struct.Cnf_Dat_t_, ptr %75, i32 0, i32 3
  %77 = load i32, ptr %76, align 8, !tbaa !55
  %78 = icmp slt i32 %74, %77
  br i1 %78, label %79, label %104

79:                                               ; preds = %73
  %80 = load ptr, ptr %7, align 8, !tbaa !37
  %81 = load ptr, ptr %8, align 8, !tbaa !49
  %82 = getelementptr inbounds nuw %struct.Cnf_Dat_t_, ptr %81, i32 0, i32 4
  %83 = load ptr, ptr %82, align 8, !tbaa !57
  %84 = load i32, ptr %14, align 4, !tbaa !7
  %85 = sext i32 %84 to i64
  %86 = getelementptr inbounds ptr, ptr %83, i64 %85
  %87 = load ptr, ptr %86, align 8, !tbaa !35
  %88 = load ptr, ptr %8, align 8, !tbaa !49
  %89 = getelementptr inbounds nuw %struct.Cnf_Dat_t_, ptr %88, i32 0, i32 4
  %90 = load ptr, ptr %89, align 8, !tbaa !57
  %91 = load i32, ptr %14, align 4, !tbaa !7
  %92 = add nsw i32 %91, 1
  %93 = sext i32 %92 to i64
  %94 = getelementptr inbounds ptr, ptr %90, i64 %93
  %95 = load ptr, ptr %94, align 8, !tbaa !35
  %96 = call i32 @sat_solver_addclause(ptr noundef %80, ptr noundef %87, ptr noundef %95)
  %97 = icmp ne i32 %96, 0
  br i1 %97, label %100, label %98

98:                                               ; preds = %79
  %99 = call i32 (ptr, ...) @printf(ptr noundef @.str.1)
  br label %100

100:                                              ; preds = %98, %79
  br label %101

101:                                              ; preds = %100
  %102 = load i32, ptr %14, align 4, !tbaa !7
  %103 = add nsw i32 %102, 1
  store i32 %103, ptr %14, align 4, !tbaa !7
  br label %73, !llvm.loop !62

104:                                              ; preds = %73
  %105 = load i32, ptr %13, align 4, !tbaa !7
  %106 = and i32 %105, 1
  %107 = icmp ne i32 %106, 0
  br i1 %107, label %108, label %114

108:                                              ; preds = %104
  %109 = load ptr, ptr %8, align 8, !tbaa !49
  %110 = load ptr, ptr %8, align 8, !tbaa !49
  %111 = getelementptr inbounds nuw %struct.Cnf_Dat_t_, ptr %110, i32 0, i32 1
  %112 = load i32, ptr %111, align 8, !tbaa !51
  %113 = load ptr, ptr %9, align 8, !tbaa !9
  call void @Cnf_DataLiftAndFlipLits(ptr noundef %109, i32 noundef %112, ptr noundef %113)
  br label %114

114:                                              ; preds = %108, %104
  %115 = load i32, ptr %13, align 4, !tbaa !7
  %116 = load i32, ptr %12, align 4, !tbaa !7
  %117 = sub nsw i32 %116, 1
  %118 = icmp slt i32 %115, %117
  br i1 %118, label %119, label %124

119:                                              ; preds = %114
  %120 = load ptr, ptr %8, align 8, !tbaa !49
  %121 = load ptr, ptr %8, align 8, !tbaa !49
  %122 = getelementptr inbounds nuw %struct.Cnf_Dat_t_, ptr %121, i32 0, i32 1
  %123 = load i32, ptr %122, align 8, !tbaa !51
  call void @Cnf_DataLift(ptr noundef %120, i32 noundef %123)
  br label %137

124:                                              ; preds = %114
  %125 = load i32, ptr %13, align 4, !tbaa !7
  %126 = icmp ne i32 %125, 0
  br i1 %126, label %127, label %136

127:                                              ; preds = %124
  %128 = load ptr, ptr %8, align 8, !tbaa !49
  %129 = load i32, ptr %12, align 4, !tbaa !7
  %130 = sub nsw i32 %129, 1
  %131 = sub nsw i32 0, %130
  %132 = load ptr, ptr %8, align 8, !tbaa !49
  %133 = getelementptr inbounds nuw %struct.Cnf_Dat_t_, ptr %132, i32 0, i32 1
  %134 = load i32, ptr %133, align 8, !tbaa !51
  %135 = mul nsw i32 %131, %134
  call void @Cnf_DataLift(ptr noundef %128, i32 noundef %135)
  br label %136

136:                                              ; preds = %127, %124
  br label %137

137:                                              ; preds = %136, %119
  br label %138

138:                                              ; preds = %137
  %139 = load i32, ptr %13, align 4, !tbaa !7
  %140 = add nsw i32 %139, 1
  store i32 %140, ptr %13, align 4, !tbaa !7
  br label %57, !llvm.loop !63

141:                                              ; preds = %57
  store i32 0, ptr %13, align 4, !tbaa !7
  br label %142

142:                                              ; preds = %190, %141
  %143 = load i32, ptr %13, align 4, !tbaa !7
  %144 = load i32, ptr %18, align 4, !tbaa !7
  %145 = icmp slt i32 %143, %144
  br i1 %145, label %146, label %193

146:                                              ; preds = %142
  call void @llvm.lifetime.start.p0(i64 4, ptr %19) #12
  %147 = load i32, ptr %13, align 4, !tbaa !7
  %148 = load ptr, ptr %8, align 8, !tbaa !49
  %149 = getelementptr inbounds nuw %struct.Cnf_Dat_t_, ptr %148, i32 0, i32 1
  %150 = load i32, ptr %149, align 8, !tbaa !51
  %151 = mul nsw i32 %147, %150
  store i32 %151, ptr %19, align 4, !tbaa !7
  call void @llvm.lifetime.start.p0(i64 4, ptr %20) #12
  %152 = load i32, ptr %13, align 4, !tbaa !7
  %153 = add nsw i32 %152, 1
  %154 = load i32, ptr %12, align 4, !tbaa !7
  %155 = srem i32 %153, %154
  %156 = load ptr, ptr %8, align 8, !tbaa !49
  %157 = getelementptr inbounds nuw %struct.Cnf_Dat_t_, ptr %156, i32 0, i32 1
  %158 = load i32, ptr %157, align 8, !tbaa !51
  %159 = mul nsw i32 %155, %158
  store i32 %159, ptr %20, align 4, !tbaa !7
  call void @llvm.lifetime.start.p0(i64 4, ptr %21) #12
  %160 = load i32, ptr %12, align 4, !tbaa !7
  %161 = load ptr, ptr %8, align 8, !tbaa !49
  %162 = getelementptr inbounds nuw %struct.Cnf_Dat_t_, ptr %161, i32 0, i32 1
  %163 = load i32, ptr %162, align 8, !tbaa !51
  %164 = mul nsw i32 %160, %163
  %165 = load i32, ptr %13, align 4, !tbaa !7
  %166 = and i32 %165, 1
  %167 = load i32, ptr %11, align 4, !tbaa !7
  %168 = mul nsw i32 %166, %167
  %169 = add nsw i32 %164, %168
  store i32 %169, ptr %21, align 4, !tbaa !7
  store i32 0, ptr %14, align 4, !tbaa !7
  br label %170

170:                                              ; preds = %186, %146
  %171 = load i32, ptr %14, align 4, !tbaa !7
  %172 = load i32, ptr %11, align 4, !tbaa !7
  %173 = icmp slt i32 %171, %172
  br i1 %173, label %174, label %189

174:                                              ; preds = %170
  %175 = load ptr, ptr %7, align 8, !tbaa !37
  %176 = load i32, ptr %19, align 4, !tbaa !7
  %177 = load i32, ptr %14, align 4, !tbaa !7
  %178 = add nsw i32 %176, %177
  %179 = load i32, ptr %20, align 4, !tbaa !7
  %180 = load i32, ptr %14, align 4, !tbaa !7
  %181 = add nsw i32 %179, %180
  %182 = load i32, ptr %21, align 4, !tbaa !7
  %183 = load i32, ptr %14, align 4, !tbaa !7
  %184 = add nsw i32 %182, %183
  %185 = call i32 @sat_solver_add_buffer_enable(ptr noundef %175, i32 noundef %178, i32 noundef %181, i32 noundef %184, i32 noundef 0)
  br label %186

186:                                              ; preds = %174
  %187 = load i32, ptr %14, align 4, !tbaa !7
  %188 = add nsw i32 %187, 1
  store i32 %188, ptr %14, align 4, !tbaa !7
  br label %170, !llvm.loop !64

189:                                              ; preds = %170
  call void @llvm.lifetime.end.p0(i64 4, ptr %21) #12
  call void @llvm.lifetime.end.p0(i64 4, ptr %20) #12
  call void @llvm.lifetime.end.p0(i64 4, ptr %19) #12
  br label %190

190:                                              ; preds = %189
  %191 = load i32, ptr %13, align 4, !tbaa !7
  %192 = add nsw i32 %191, 1
  store i32 %192, ptr %13, align 4, !tbaa !7
  br label %142, !llvm.loop !65

193:                                              ; preds = %142
  %194 = load ptr, ptr %7, align 8, !tbaa !37
  %195 = call i32 @sat_solver_simplify(ptr noundef %194)
  store i32 %195, ptr %15, align 4, !tbaa !7
  %196 = load i32, ptr %15, align 4, !tbaa !7
  %197 = icmp ne i32 %196, 0
  br i1 %197, label %200, label %198

198:                                              ; preds = %193
  %199 = call i32 (ptr, ...) @printf(ptr noundef @.str.1)
  br label %200

200:                                              ; preds = %198, %193
  call void @llvm.lifetime.end.p0(i64 4, ptr %18) #12
  call void @llvm.lifetime.end.p0(i64 4, ptr %17) #12
  call void @llvm.lifetime.end.p0(i64 4, ptr %16) #12
  call void @llvm.lifetime.end.p0(i64 4, ptr %15) #12
  call void @llvm.lifetime.end.p0(i64 4, ptr %14) #12
  call void @llvm.lifetime.end.p0(i64 4, ptr %13) #12
  ret i32 1
}