; Function Attrs: nounwind uwtable
define noundef i32 @Acb_NtkWindow2Solver(ptr noundef %0, ptr noundef %1, ptr noundef %2, i32 %3, i32 noundef %4, i32 noundef %5) local_unnamed_addr #0 {
  %7 = alloca [3 x i32], align 4
  %8 = getelementptr inbounds nuw i8, ptr %1, i64 24
  %9 = icmp slt i32 %5, 3
  %10 = add nsw i32 %5, -1
  %11 = select i1 %9, i32 %10, i32 2
  %12 = select i1 %9, i32 %10, i32 %5
  %13 = getelementptr inbounds nuw i8, ptr %1, i64 8
  %14 = load i32, ptr %13, align 8, !tbaa !44
  %15 = mul nsw i32 %14, %5
  %16 = mul nsw i32 %11, %4
  %17 = add i32 %16, 2
  %18 = add i32 %17, %15
  tail call void @sat_solver_setnvars(ptr noundef %0, i32 noundef %18) #25
  %19 = icmp sgt i32 %5, 0
  br i1 %19, label %.lr.ph72, label %.preheader

.lr.ph72:                                         ; preds = %6
  %20 = getelementptr inbounds nuw i8, ptr %1, i64 16
  %21 = sub nsw i32 1, %5
  br label %49

.preheader:                                       ; preds = %78, %6
  %22 = icmp sgt i32 %12, 0
  br i1 %22, label %.lr.ph77, label %._crit_edge78

.lr.ph77:                                         ; preds = %.preheader
  %23 = icmp sgt i32 %4, 0
  %24 = getelementptr inbounds nuw i8, ptr %7, i64 4
  %25 = getelementptr inbounds nuw i8, ptr %7, i64 8
  %26 = getelementptr inbounds nuw i8, ptr %7, i64 12
  br i1 %23, label %.lr.ph75.us, label %._crit_edge78

.lr.ph75.us:                                      ; preds = %.lr.ph77, %..loopexit_crit_edge.us
  %.176.us = phi i32 [ %29, %..loopexit_crit_edge.us ], [ 0, %.lr.ph77 ]
  %27 = load i32, ptr %13, align 8, !tbaa !44
  %28 = mul nsw i32 %27, %.176.us
  %29 = add nuw nsw i32 %.176.us, 1
  %30 = srem i32 %29, %5
  %31 = mul nsw i32 %30, %27
  %32 = mul nsw i32 %27, %5
  %33 = trunc i32 %.176.us to i1
  %34 = select i1 %33, i32 %4, i32 0
  %35 = add nsw i32 %32, %34
  br label %36

36:                                               ; preds = %.lr.ph75.us, %36
  %.16273.us = phi i32 [ 0, %.lr.ph75.us ], [ %48, %36 ]
  %37 = add nsw i32 %.16273.us, %28
  %38 = add nsw i32 %.16273.us, %31
  %39 = add nsw i32 %35, %.16273.us
  call void @llvm.lifetime.start.p0(i64 12, ptr nonnull %7) #25
  %40 = shl nsw i32 %37, 1
  store i32 %40, ptr %7, align 4, !tbaa !19
  %41 = shl nsw i32 %38, 1
  %42 = or disjoint i32 %41, 1
  store i32 %42, ptr %24, align 4, !tbaa !19
  %43 = shl nsw i32 %39, 1
  %44 = or disjoint i32 %43, 1
  store i32 %44, ptr %25, align 4, !tbaa !19
  %45 = call i32 @sat_solver_addclause(ptr noundef %0, ptr noundef nonnull %7, ptr noundef nonnull %26) #25
  %46 = or disjoint i32 %40, 1
  store i32 %46, ptr %7, align 4, !tbaa !19
  store i32 %41, ptr %24, align 4, !tbaa !19
  store i32 %44, ptr %25, align 4, !tbaa !19
  %47 = call i32 @sat_solver_addclause(ptr noundef %0, ptr noundef nonnull %7, ptr noundef nonnull %26) #25
  call void @llvm.lifetime.end.p0(i64 12, ptr nonnull %7) #25
  %48 = add nuw nsw i32 %.16273.us, 1
  %exitcond81.not = icmp eq i32 %48, %4
  br i1 %exitcond81.not, label %..loopexit_crit_edge.us, label %36, !llvm.loop !54

..loopexit_crit_edge.us:                          ; preds = %36
  %exitcond82.not = icmp eq i32 %29, %12
  br i1 %exitcond82.not, label %._crit_edge78, label %.lr.ph75.us, !llvm.loop !55

49:                                               ; preds = %.lr.ph72, %78
  %.070 = phi i32 [ 0, %.lr.ph72 ], [ %79, %78 ]
  %50 = and i32 %.070, 1
  %.not65 = icmp eq i32 %50, 0
  br i1 %.not65, label %54, label %51

51:                                               ; preds = %49
  %52 = load i32, ptr %13, align 8, !tbaa !44
  %53 = sub nsw i32 0, %52
  tail call void @Cnf_DataLiftAndFlipLits(ptr noundef %1, i32 noundef %53, ptr noundef %2) #25
  br label %54

54:                                               ; preds = %51, %49
  %55 = load i32, ptr %20, align 8, !tbaa !48
  %56 = icmp sgt i32 %55, 0
  br i1 %56, label %.lr.ph, label %._crit_edge

.lr.ph:                                           ; preds = %54, %64
  %indvars.iv = phi i64 [ %indvars.iv.next, %64 ], [ 0, %54 ]
  %57 = load ptr, ptr %8, align 8, !tbaa !50
  %58 = getelementptr inbounds nuw ptr, ptr %57, i64 %indvars.iv
  %59 = load ptr, ptr %58, align 8, !tbaa !51
  %indvars.iv.next = add nuw nsw i64 %indvars.iv, 1
  %60 = getelementptr inbounds nuw ptr, ptr %57, i64 %indvars.iv.next
  %61 = load ptr, ptr %60, align 8, !tbaa !51
  %62 = tail call i32 @sat_solver_addclause(ptr noundef %0, ptr noundef %59, ptr noundef %61) #25
  %.not67 = icmp eq i32 %62, 0
  br i1 %.not67, label %63, label %64

63:                                               ; preds = %.lr.ph
  %puts68 = tail call i32 @puts(ptr nonnull dereferenceable(1) @str.2)
  br label %64

64:                                               ; preds = %.lr.ph, %63
  %65 = load i32, ptr %20, align 8, !tbaa !48
  %66 = sext i32 %65 to i64
  %67 = icmp slt i64 %indvars.iv.next, %66
  br i1 %67, label %.lr.ph, label %._crit_edge, !llvm.loop !56

._crit_edge:                                      ; preds = %64, %54
  br i1 %.not65, label %70, label %68

68:                                               ; preds = %._crit_edge
  %69 = load i32, ptr %13, align 8, !tbaa !44
  tail call void @Cnf_DataLiftAndFlipLits(ptr noundef nonnull %1, i32 noundef %69, ptr noundef %2) #25
  br label %70

70:                                               ; preds = %68, %._crit_edge
  %71 = icmp slt i32 %.070, %10
  br i1 %71, label %72, label %74

72:                                               ; preds = %70
  %73 = load i32, ptr %13, align 8, !tbaa !44
  br label %.sink.split

74:                                               ; preds = %70
  %.not66 = icmp eq i32 %.070, 0
  br i1 %.not66, label %78, label %75

75:                                               ; preds = %74
  %76 = load i32, ptr %13, align 8, !tbaa !44
  %77 = mul nsw i32 %76, %21
  br label %.sink.split

.sink.split:                                      ; preds = %75, %72
  %.sink = phi i32 [ %73, %72 ], [ %77, %75 ]
  tail call void @Cnf_DataLift(ptr noundef nonnull %1, i32 noundef %.sink) #25
  br label %78

78:                                               ; preds = %.sink.split, %74
  %79 = add nuw nsw i32 %.070, 1
  %exitcond.not = icmp eq i32 %79, %5
  br i1 %exitcond.not, label %.preheader, label %49, !llvm.loop !57

._crit_edge78:                                    ; preds = %..loopexit_crit_edge.us, %.lr.ph77, %.preheader
  %80 = call i32 @sat_solver_simplify(ptr noundef %0) #25
  %.not = icmp eq i32 %80, 0
  br i1 %.not, label %81, label %82

81:                                               ; preds = %._crit_edge78
  %puts = call i32 @puts(ptr nonnull dereferenceable(1) @str.2)
  br label %82

82:                                               ; preds = %81, %._crit_edge78
  ret i32 1
}